target datalayout = "e-m:e-p270:32:32-p271:32:32-p272:64:64-i64:64-i128:128-f80:128-n8:16:32:64-S128"
target triple = "x86_64-pc-linux-gnu"

%struct.CvBox2D = type { %struct.CvPoint2D32f, %struct.CvSize2D32f, float }
%struct.CvPoint2D32f = type { float, float }
%struct.CvSize2D32f = type { float, float }
%"class.std::__cxx11::basic_string" = type { %"struct.std::__cxx11::basic_string<char>::_Alloc_hider", i64, %union.anon }
%"struct.std::__cxx11::basic_string<char>::_Alloc_hider" = type { ptr }
%union.anon = type { i64, [8 x i8] }
%"class.std::allocator" = type { i8 }
%"class.cv::RotatedRect" = type { %"class.cv::Point_", %"class.cv::Size_", float }
%"class.cv::Point_" = type { float, float }
%"class.cv::Size_" = type { float, float }

@.str = private unnamed_addr constant [26 x i8] c"NULL vertex array pointer\00", align 1
@__func__.cvBoxPoints = private unnamed_addr constant [12 x i8] c"cvBoxPoints\00", align 1
@.str.1 = private unnamed_addr constant [124 x i8] c"generated/home/dtcxzyw/WorkSpace/Projects/compilers/llvm-opt-benchmark/bench/opencv/opencv/modules/imgproc/src/geometry.cpp\00", align 1

; Function Attrs: mustprogress nounwind uwtable
define linkonce_odr hidden void @_ZN2cv5Size_IfEC2Eff(ptr noundef nonnull align 4 dereferenceable(8) %0, float noundef %1, float noundef %2) unnamed_addr #1 comdat align 2 {
  %4 = alloca ptr, align 8
  %5 = alloca float, align 4
  %6 = alloca float, align 4
  store ptr %0, ptr %4, align 8
  store float %1, ptr %5, align 4
  store float %2, ptr %6, align 4
  %7 = load ptr, ptr %4, align 8
  %8 = getelementptr inbounds %"class.cv::Size_", ptr %7, i32 0, i32 0
  %9 = load float, ptr %5, align 4
  store float %9, ptr %8, align 4
  %10 = getelementptr inbounds %"class.cv::Size_", ptr %7, i32 0, i32 1
  %11 = load float, ptr %6, align 4
  store float %11, ptr %10, align 4
  ret void
}

; Function Attrs: mustprogress nounwind uwtable
define linkonce_odr hidden void @_ZN2cv6Point_IfEC2Eff(ptr noundef nonnull align 4 dereferenceable(8) %0, float noundef %1, float noundef %2) unnamed_addr #1 comdat align 2 {
  %4 = alloca ptr, align 8
  %5 = alloca float, align 4
  %6 = alloca float, align 4
  store ptr %0, ptr %4, align 8
  store float %1, ptr %5, align 4
  store float %2, ptr %6, align 4
  %7 = load ptr, ptr %4, align 8
  %8 = getelementptr inbounds %"class.cv::Point_", ptr %7, i32 0, i32 0
  %9 = load float, ptr %5, align 4
  store float %9, ptr %8, align 4
  %10 = getelementptr inbounds %"class.cv::Point_", ptr %7, i32 0, i32 1
  %11 = load float, ptr %6, align 4
  store float %11, ptr %10, align 4
  ret void
}

; Function Attrs: mustprogress nounwind uwtable
define internal noundef float @_ZN2cvL13saturate_castIfEET_f(float noundef %0) #1 {
  %2 = alloca float, align 4
  store float %0, ptr %2, align 4
  %3 = load float, ptr %2, align 4
  ret float %3
}

; Function Attrs: mustprogress nounwind uwtable
define linkonce_odr hidden void @_ZN2cv11RotatedRectC2ERKNS_6Point_IfEERKNS_5Size_IfEEf(ptr noundef nonnull align 4 dereferenceable(20) %0, ptr noundef nonnull align 4 dereferenceable(8) %1, ptr noundef nonnull align 4 dereferenceable(8) %2, float noundef %3) unnamed_addr #1 comdat align 2 {
  %5 = alloca ptr, align 8
  %6 = alloca ptr, align 8
  %7 = alloca ptr, align 8
  %8 = alloca float, align 4
  store ptr %0, ptr %5, align 8
  store ptr %1, ptr %6, align 8
  store ptr %2, ptr %7, align 8
  store float %3, ptr %8, align 4
  %9 = load ptr, ptr %5, align 8
  %10 = getelementptr inbounds %"class.cv::RotatedRect", ptr %9, i32 0, i32 0
  %11 = load ptr, ptr %6, align 8
  call void @llvm.memcpy.p0.p0.i64(ptr align 4 %10, ptr align 4 %11, i64 8, i1 false)
  %12 = getelementptr inbounds %"class.cv::RotatedRect", ptr %9, i32 0, i32 1
  %13 = load ptr, ptr %7, align 8
  call void @llvm.memcpy.p0.p0.i64(ptr align 4 %12, ptr align 4 %13, i64 8, i1 false)
  %14 = getelementptr inbounds %"class.cv::RotatedRect", ptr %9, i32 0, i32 2
  %15 = load float, ptr %8, align 4
  store float %15, ptr %14, align 4
  ret void
}

; Function Attrs: mustprogress uwtable
define linkonce_odr hidden <2 x float> @_ZNK11CvSize2D32fcvN2cv5Size_IT_EEIfEEv(ptr noundef nonnull align 4 dereferenceable(8) %0) #6 comdat align 2 {
  %2 = alloca %"class.cv::Size_", align 4
  %3 = alloca ptr, align 8
  store ptr %0, ptr %3, align 8
  %4 = load ptr, ptr %3, align 8
  %5 = getelementptr inbounds %struct.CvSize2D32f, ptr %4, i32 0, i32 0
  %6 = load float, ptr %5, align 4
  %7 = call noundef float @_ZN2cvL13saturate_castIfEET_f(float noundef %6)
  %8 = getelementptr inbounds %struct.CvSize2D32f, ptr %4, i32 0, i32 1
  %9 = load float, ptr %8, align 4
  %10 = call noundef float @_ZN2cvL13saturate_castIfEET_f(float noundef %9)
  call void @_ZN2cv5Size_IfEC2Eff(ptr noundef nonnull align 4 dereferenceable(8) %2, float noundef %7, float noundef %10)
  %11 = load <2 x float>, ptr %2, align 4
  ret <2 x float> %11
}

; Function Attrs: mustprogress uwtable
define linkonce_odr hidden <2 x float> @_ZNK12CvPoint2D32fcvN2cv6Point_IT_EEIfEEv(ptr noundef nonnull align 4 dereferenceable(8) %0) #6 comdat align 2 {
  %2 = alloca %"class.cv::Point_", align 4
  %3 = alloca ptr, align 8
  store ptr %0, ptr %3, align 8
  %4 = load ptr, ptr %3, align 8
  %5 = getelementptr inbounds %struct.CvPoint2D32f, ptr %4, i32 0, i32 0
  %6 = load float, ptr %5, align 4
  %7 = call noundef float @_ZN2cvL13saturate_castIfEET_f(float noundef %6)
  %8 = getelementptr inbounds %struct.CvPoint2D32f, ptr %4, i32 0, i32 1
  %9 = load float, ptr %8, align 4
  %10 = call noundef float @_ZN2cvL13saturate_castIfEET_f(float noundef %9)
  call void @_ZN2cv6Point_IfEC2Eff(ptr noundef nonnull align 4 dereferenceable(8) %2, float noundef %7, float noundef %10)
  %11 = load <2 x float>, ptr %2, align 4
  ret <2 x float> %11
}

; Function Attrs: mustprogress uwtable
define linkonce_odr hidden void @_ZNK7CvBox2DcvN2cv11RotatedRectEEv(ptr dead_on_unwind noalias writable sret(%"class.cv::RotatedRect") align 4 %0, ptr noundef nonnull align 4 dereferenceable(20) %1) #6 comdat align 2 {
  %3 = alloca ptr, align 8
  %4 = alloca %"class.cv::Point_", align 4
  %5 = alloca %"class.cv::Size_", align 4
  store ptr %1, ptr %3, align 8
  %6 = load ptr, ptr %3, align 8
  %7 = getelementptr inbounds %struct.CvBox2D, ptr %6, i32 0, i32 0
  %8 = call <2 x float> @_ZNK12CvPoint2D32fcvN2cv6Point_IT_EEIfEEv(ptr noundef nonnull align 4 dereferenceable(8) %7)
  store <2 x float> %8, ptr %4, align 4
  %9 = getelementptr inbounds %struct.CvBox2D, ptr %6, i32 0, i32 1
  %10 = call <2 x float> @_ZNK11CvSize2D32fcvN2cv5Size_IT_EEIfEEv(ptr noundef nonnull align 4 dereferenceable(8) %9)
  store <2 x float> %10, ptr %5, align 4
  %11 = getelementptr inbounds %struct.CvBox2D, ptr %6, i32 0, i32 2
  %12 = load float, ptr %11, align 4
  call void @_ZN2cv11RotatedRectC2ERKNS_6Point_IfEERKNS_5Size_IfEEf(ptr noundef nonnull align 4 dereferenceable(20) %0, ptr noundef nonnull align 4 dereferenceable(8) %4, ptr noundef nonnull align 4 dereferenceable(8) %5, float noundef %12)
  ret void
}

; Function Attrs: mustprogress uwtable
define void @cvBoxPoints(ptr noundef byval(%struct.CvBox2D) align 8 %0, ptr noundef %1) #0 personality ptr @__gxx_personality_v0 {
  %3 = alloca ptr, align 8
  %4 = alloca %"class.std::__cxx11::basic_string", align 8
  %5 = alloca %"class.std::allocator", align 1
  %6 = alloca ptr, align 8
  %7 = alloca i32, align 4
  %8 = alloca %"class.cv::RotatedRect", align 4
  store ptr %1, ptr %3, align 8
  %9 = load ptr, ptr %3, align 8
  %10 = icmp ne ptr %9, null
  br i1 %10, label %23, label %11

11:                                               ; preds = %2
  call void @_ZNSaIcEC1Ev(ptr noundef nonnull align 1 dereferenceable(1) %5) #14
  invoke void @_ZNSt7__cxx1112basic_stringIcSt11char_traitsIcESaIcEEC1EPKcRKS3_(ptr noundef nonnull align 8 dereferenceable(32) %4, ptr noundef @.str, ptr noundef nonnull align 1 dereferenceable(1) %5)
          to label %12 unwind label %14

12:                                               ; preds = %11
  invoke void @_ZN2cv5errorEiRKNSt7__cxx1112basic_stringIcSt11char_traitsIcESaIcEEEPKcS9_i(i32 noundef -27, ptr noundef nonnull align 8 dereferenceable(32) %4, ptr noundef @__func__.cvBoxPoints, ptr noundef @.str.1, i32 noundef 92) #15
          to label %13 unwind label %18

13:                                               ; preds = %12
  unreachable

14:                                               ; preds = %11
  %15 = landingpad { ptr, i32 }
          cleanup
  %16 = extractvalue { ptr, i32 } %15, 0
  store ptr %16, ptr %6, align 8
  %17 = extractvalue { ptr, i32 } %15, 1
  store i32 %17, ptr %7, align 4
  br label %22

18:                                               ; preds = %12
  %19 = landingpad { ptr, i32 }
          cleanup
  %20 = extractvalue { ptr, i32 } %19, 0
  store ptr %20, ptr %6, align 8
  %21 = extractvalue { ptr, i32 } %19, 1
  store i32 %21, ptr %7, align 4
  call void @_ZNSt7__cxx1112basic_stringIcSt11char_traitsIcESaIcEED1Ev(ptr noundef nonnull align 8 dereferenceable(32) %4) #14
  br label %22

22:                                               ; preds = %18, %14
  call void @_ZNSaIcED1Ev(ptr noundef nonnull align 1 dereferenceable(1) %5) #14
  br label %25

23:                                               ; preds = %2
  call void @_ZNK7CvBox2DcvN2cv11RotatedRectEEv(ptr dead_on_unwind writable sret(%"class.cv::RotatedRect") align 4 %8, ptr noundef nonnull align 4 dereferenceable(20) %0)
  %24 = load ptr, ptr %3, align 8
  call void @_ZNK2cv11RotatedRect6pointsEPNS_6Point_IfEE(ptr noundef nonnull align 4 dereferenceable(20) %8, ptr noundef %24)
  ret void

25:                                               ; preds = %22
  %26 = load ptr, ptr %6, align 8
  %27 = load i32, ptr %7, align 4
  %28 = insertvalue { ptr, i32 } poison, ptr %26, 0
  %29 = insertvalue { ptr, i32 } %28, i32 %27, 1
  resume { ptr, i32 } %29
}