; Function Attrs: mustprogress uwtable
define void @cvBoxPoints(ptr nocapture noundef readonly byval(%struct.CvBox2D) align 8 %0, ptr noundef %1) local_unnamed_addr #1 personality ptr @__gxx_personality_v0 {
  %3 = alloca %"class.std::__cxx11::basic_string", align 8
  %4 = alloca %"class.std::allocator", align 1
  %5 = alloca %"class.cv::RotatedRect", align 8
  %.not = icmp eq ptr %1, null
  br i1 %.not, label %6, label %14

6:                                                ; preds = %2
  call void @_ZNSaIcEC1Ev(ptr noundef nonnull align 1 dereferenceable(1) %4) #17
  invoke void @_ZNSt7__cxx1112basic_stringIcSt11char_traitsIcESaIcEEC1EPKcRKS3_(ptr noundef nonnull align 8 dereferenceable(32) %3, ptr noundef nonnull @.str, ptr noundef nonnull align 1 dereferenceable(1) %4)
          to label %7 unwind label %9

7:                                                ; preds = %6
  invoke void @_ZN2cv5errorEiRKNSt7__cxx1112basic_stringIcSt11char_traitsIcESaIcEEEPKcS9_i(i32 noundef -27, ptr noundef nonnull align 8 dereferenceable(32) %3, ptr noundef nonnull @__func__.cvBoxPoints, ptr noundef nonnull @.str.1, i32 noundef 92) #18
          to label %8 unwind label %11

8:                                                ; preds = %7
  unreachable

9:                                                ; preds = %6
  %10 = landingpad { ptr, i32 }
          cleanup
  br label %13

11:                                               ; preds = %7
  %12 = landingpad { ptr, i32 }
          cleanup
  call void @_ZNSt7__cxx1112basic_stringIcSt11char_traitsIcESaIcEED1Ev(ptr noundef nonnull align 8 dereferenceable(32) %3) #17
  br label %13

13:                                               ; preds = %11, %9
  %.pn = phi { ptr, i32 } [ %12, %11 ], [ %10, %9 ]
  call void @_ZNSaIcED1Ev(ptr noundef nonnull align 1 dereferenceable(1) %4) #17
  resume { ptr, i32 } %.pn

14:                                               ; preds = %2
  tail call void @llvm.experimental.noalias.scope.decl(metadata !4)
  %15 = load <4 x float>, ptr %0, align 8, !noalias !4
  %.sroa.0.4.vec.insert.i.i = shufflevector <4 x float> %15, <4 x float> poison, <2 x i32> <i32 0, i32 1>
  %.sroa.0.0.vec.insert.i1.i = shufflevector <4 x float> %15, <4 x float> poison, <2 x i32> <i32 2, i32 poison>
  %16 = extractelement <4 x float> %15, i64 3
  %.sroa.0.4.vec.insert.i2.i = insertelement <2 x float> %.sroa.0.0.vec.insert.i1.i, float %16, i64 1
  %17 = getelementptr inbounds i8, ptr %0, i64 16
  %18 = load float, ptr %17, align 8, !noalias !4
  store <2 x float> %.sroa.0.4.vec.insert.i.i, ptr %5, align 8, !alias.scope !4
  %19 = getelementptr inbounds i8, ptr %5, i64 8
  store <2 x float> %.sroa.0.4.vec.insert.i2.i, ptr %19, align 8, !alias.scope !4
  %20 = getelementptr inbounds i8, ptr %5, i64 16
  store float %18, ptr %20, align 8, !alias.scope !4
  call void @_ZNK2cv11RotatedRect6pointsEPNS_6Point_IfEE(ptr noundef nonnull align 4 dereferenceable(20) %5, ptr noundef nonnull %1)
  ret void
}